; Function Attrs: mustprogress uwtable
define hidden noundef zeroext i1 @_ZNK4cvc58internal6theory11quantifiers11QAttributes10isStandardEv(ptr noundef nonnull readonly align 8 captures(none) dereferenceable(80) %0) local_unnamed_addr #3 align 2 personality ptr @__gxx_personality_v0 {
  %2 = getelementptr inbounds nuw i8, ptr %0, i64 16
  %3 = load i8, ptr %2, align 8, !tbaa !3, !range !12, !noundef !13
  %4 = trunc nuw i8 %3 to i1
  br i1 %4, label %46, label %5

5:                                                ; preds = %1
  %6 = getelementptr inbounds nuw i8, ptr %0, i64 48
  %7 = load i8, ptr %6, align 8, !tbaa !14, !range !12, !noundef !13
  %8 = trunc nuw i8 %7 to i1
  br i1 %8, label %46, label %9

9:                                                ; preds = %5
  %10 = getelementptr inbounds nuw i8, ptr %0, i64 8
  %11 = load ptr, ptr %10, align 8, !tbaa !15
  %12 = load atomic i8, ptr @_ZGVZN4cvc58internal4expr9NodeValue4nullEvE6s_null acquire, align 8
  %13 = icmp eq i8 %12, 0
  br i1 %13, label %14, label %_ZNK4cvc58internal6theory11quantifiers11QAttributes8isFunDefEv.exit, !prof !16

14:                                               ; preds = %9
  %15 = tail call i32 @__cxa_guard_acquire(ptr nonnull @_ZGVZN4cvc58internal4expr9NodeValue4nullEvE6s_null) #26
  %.not.i.i.i = icmp eq i32 %15, 0
  br i1 %.not.i.i.i, label %_ZNK4cvc58internal6theory11quantifiers11QAttributes8isFunDefEv.exit, label %16

16:                                               ; preds = %14
  %17 = invoke noalias noundef nonnull dereferenceable(24) ptr @_Znwm(i64 noundef 24) #27
          to label %18 unwind label %20

18:                                               ; preds = %16
  store i64 1152920405095219200, ptr %17, align 8
  %19 = getelementptr inbounds nuw i8, ptr %17, i64 8
  tail call void @llvm.memset.p0.i64(ptr noundef nonnull align 8 dereferenceable(16) %19, i8 0, i64 16, i1 false)
  store ptr %17, ptr @_ZZN4cvc58internal4expr9NodeValue4nullEvE6s_null, align 8, !tbaa !17
  tail call void @__cxa_guard_release(ptr nonnull @_ZGVZN4cvc58internal4expr9NodeValue4nullEvE6s_null) #26
  br label %_ZNK4cvc58internal6theory11quantifiers11QAttributes8isFunDefEv.exit

common.resume:                                    ; preds = %34, %20
  %common.resume.op = phi { ptr, i32 } [ %21, %20 ], [ %35, %34 ]
  tail call void @__cxa_guard_abort(ptr nonnull @_ZGVZN4cvc58internal4expr9NodeValue4nullEvE6s_null) #26
  resume { ptr, i32 } %common.resume.op

20:                                               ; preds = %16
  %21 = landingpad { ptr, i32 }
          cleanup
  br label %common.resume

_ZNK4cvc58internal6theory11quantifiers11QAttributes8isFunDefEv.exit: ; preds = %9, %14, %18
  %22 = load ptr, ptr @_ZZN4cvc58internal4expr9NodeValue4nullEvE6s_null, align 8, !tbaa !17
  %.not = icmp eq ptr %11, %22
  br i1 %.not, label %23, label %46

23:                                               ; preds = %_ZNK4cvc58internal6theory11quantifiers11QAttributes8isFunDefEv.exit
  %24 = getelementptr inbounds nuw i8, ptr %0, i64 24
  %25 = load ptr, ptr %24, align 8, !tbaa !15
  %26 = load atomic i8, ptr @_ZGVZN4cvc58internal4expr9NodeValue4nullEvE6s_null acquire, align 8
  %27 = icmp eq i8 %26, 0
  br i1 %27, label %28, label %_ZNK4cvc58internal6theory11quantifiers11QAttributes17isOracleInterfaceEv.exit, !prof !16

28:                                               ; preds = %23
  %29 = tail call i32 @__cxa_guard_acquire(ptr nonnull @_ZGVZN4cvc58internal4expr9NodeValue4nullEvE6s_null) #26
  %.not.i.i.i1 = icmp eq i32 %29, 0
  br i1 %.not.i.i.i1, label %_ZNK4cvc58internal6theory11quantifiers11QAttributes17isOracleInterfaceEv.exit, label %30

30:                                               ; preds = %28
  %31 = invoke noalias noundef nonnull dereferenceable(24) ptr @_Znwm(i64 noundef 24) #27
          to label %32 unwind label %34

32:                                               ; preds = %30
  store i64 1152920405095219200, ptr %31, align 8
  %33 = getelementptr inbounds nuw i8, ptr %31, i64 8
  tail call void @llvm.memset.p0.i64(ptr noundef nonnull align 8 dereferenceable(16) %33, i8 0, i64 16, i1 false)
  store ptr %31, ptr @_ZZN4cvc58internal4expr9NodeValue4nullEvE6s_null, align 8, !tbaa !17
  tail call void @__cxa_guard_release(ptr nonnull @_ZGVZN4cvc58internal4expr9NodeValue4nullEvE6s_null) #26
  br label %_ZNK4cvc58internal6theory11quantifiers11QAttributes17isOracleInterfaceEv.exit

34:                                               ; preds = %30
  %35 = landingpad { ptr, i32 }
          cleanup
  br label %common.resume

_ZNK4cvc58internal6theory11quantifiers11QAttributes17isOracleInterfaceEv.exit: ; preds = %23, %28, %32
  %36 = load ptr, ptr @_ZZN4cvc58internal4expr9NodeValue4nullEvE6s_null, align 8, !tbaa !17
  %.not2 = icmp eq ptr %25, %36
  br i1 %.not2, label %37, label %46

37:                                               ; preds = %_ZNK4cvc58internal6theory11quantifiers11QAttributes17isOracleInterfaceEv.exit
  %38 = getelementptr inbounds nuw i8, ptr %0, i64 51
  %39 = load i8, ptr %38, align 1, !tbaa !18, !range !12, !noundef !13
  %40 = trunc nuw i8 %39 to i1
  br i1 %40, label %46, label %41

41:                                               ; preds = %37
  %42 = getelementptr inbounds nuw i8, ptr %0, i64 1
  %43 = load i8, ptr %42, align 1, !tbaa !19, !range !12, !noundef !13
  %44 = trunc nuw i8 %43 to i1
  %45 = xor i1 %44, true
  br label %46

46:                                               ; preds = %41, %37, %_ZNK4cvc58internal6theory11quantifiers11QAttributes17isOracleInterfaceEv.exit, %_ZNK4cvc58internal6theory11quantifiers11QAttributes8isFunDefEv.exit, %5, %1
  %47 = phi i1 [ false, %37 ], [ false, %_ZNK4cvc58internal6theory11quantifiers11QAttributes17isOracleInterfaceEv.exit ], [ false, %_ZNK4cvc58internal6theory11quantifiers11QAttributes8isFunDefEv.exit ], [ false, %5 ], [ false, %1 ], [ %45, %41 ]
  ret i1 %47
}